target datalayout = "e-m:e-p270:32:32-p271:32:32-p272:64:64-i64:64-i128:128-f80:128-n8:16:32:64-S128"
target triple = "x86_64-pc-linux-gnu"

%"class.cv::Mat" = type { i32, i32, i32, i32, ptr, ptr, ptr, ptr, ptr, ptr, %"struct.cv::MatSize", %"struct.cv::MatStep" }
%"struct.cv::MatSize" = type { ptr }
%"struct.cv::MatStep" = type { ptr, [2 x i64] }
%"class.cv::Point_" = type { i32, i32 }

; Function Attrs: inlinehint mustprogress nounwind uwtable
define linkonce_odr hidden noundef nonnull align 4 dereferenceable(4) ptr @_ZN2cv3Mat2atIfEERT_ii(ptr noundef nonnull align 8 dereferenceable(96) %0, i32 noundef %1, i32 noundef %2) #5 comdat align 2 {
  %4 = alloca ptr, align 8
  %5 = alloca i32, align 4
  %6 = alloca i32, align 4
  store ptr %0, ptr %4, align 8, !tbaa !42
  store i32 %1, ptr %5, align 4, !tbaa !34
  store i32 %2, ptr %6, align 4, !tbaa !34
  %7 = load ptr, ptr %4, align 8
  %8 = getelementptr inbounds nuw %"class.cv::Mat", ptr %7, i32 0, i32 4
  %9 = load ptr, ptr %8, align 8, !tbaa !84
  %10 = getelementptr inbounds nuw %"class.cv::Mat", ptr %7, i32 0, i32 11
  %11 = getelementptr inbounds nuw %"struct.cv::MatStep", ptr %10, i32 0, i32 0
  %12 = load ptr, ptr %11, align 8, !tbaa !85
  %13 = getelementptr inbounds i64, ptr %12, i64 0
  %14 = load i64, ptr %13, align 8, !tbaa !86
  %15 = load i32, ptr %5, align 4, !tbaa !34
  %16 = sext i32 %15 to i64
  %17 = mul i64 %14, %16
  %18 = getelementptr inbounds nuw i8, ptr %9, i64 %17
  %19 = load i32, ptr %6, align 4, !tbaa !34
  %20 = sext i32 %19 to i64
  %21 = getelementptr inbounds float, ptr %18, i64 %20
  ret ptr %21
}

; Function Attrs: inlinehint mustprogress nounwind uwtable
define linkonce_odr hidden void @_ZN2cv6Point_IiEC2Ev(ptr noundef nonnull align 4 dereferenceable(8) %0) unnamed_addr #5 comdat align 2 {
  %2 = alloca ptr, align 8
  store ptr %0, ptr %2, align 8, !tbaa !79
  %3 = load ptr, ptr %2, align 8
  %4 = getelementptr inbounds nuw %"class.cv::Point_", ptr %3, i32 0, i32 0
  store i32 0, ptr %4, align 4, !tbaa !57
  %5 = getelementptr inbounds nuw %"class.cv::Point_", ptr %3, i32 0, i32 1
  store i32 0, ptr %5, align 4, !tbaa !59
  ret void
}

; Function Attrs: mustprogress uwtable
define noundef float @_ZN2cv8saliency25StaticSaliencyFineGrained7getMeanENS_3MatENS_6Point_IiEEii(ptr noundef nonnull align 8 dereferenceable(8) %0, ptr noundef %1, i64 %2, i32 noundef %3, i32 noundef %4) #4 align 2 {
  %6 = alloca %"class.cv::Point_", align 4
  %7 = alloca ptr, align 8
  %8 = alloca ptr, align 8
  %9 = alloca i32, align 4
  %10 = alloca i32, align 4
  %11 = alloca %"class.cv::Point_", align 4
  %12 = alloca %"class.cv::Point_", align 4
  %13 = alloca float, align 4
  store i64 %2, ptr %6, align 4
  store ptr %0, ptr %7, align 8, !tbaa !3
  store ptr %1, ptr %8, align 8, !tbaa !42
  store i32 %3, ptr %9, align 4, !tbaa !34
  store i32 %4, ptr %10, align 4, !tbaa !34
  call void @llvm.lifetime.start.p0(i64 8, ptr %11) #3
  call void @_ZN2cv6Point_IiEC2Ev(ptr noundef nonnull align 4 dereferenceable(8) %11)
  call void @llvm.lifetime.start.p0(i64 8, ptr %12) #3
  call void @_ZN2cv6Point_IiEC2Ev(ptr noundef nonnull align 4 dereferenceable(8) %12)
  call void @llvm.lifetime.start.p0(i64 4, ptr %13) #3
  %14 = getelementptr inbounds nuw %"class.cv::Point_", ptr %6, i32 0, i32 0
  %15 = load i32, ptr %14, align 4, !tbaa !57
  %16 = load i32, ptr %9, align 4, !tbaa !34
  %17 = sub nsw i32 %15, %16
  %18 = add nsw i32 %17, 1
  %19 = getelementptr inbounds nuw %"class.cv::Point_", ptr %11, i32 0, i32 0
  store i32 %18, ptr %19, align 4, !tbaa !57
  %20 = getelementptr inbounds nuw %"class.cv::Point_", ptr %6, i32 0, i32 1
  %21 = load i32, ptr %20, align 4, !tbaa !59
  %22 = load i32, ptr %9, align 4, !tbaa !34
  %23 = sub nsw i32 %21, %22
  %24 = add nsw i32 %23, 1
  %25 = getelementptr inbounds nuw %"class.cv::Point_", ptr %11, i32 0, i32 1
  store i32 %24, ptr %25, align 4, !tbaa !59
  %26 = getelementptr inbounds nuw %"class.cv::Point_", ptr %6, i32 0, i32 0
  %27 = load i32, ptr %26, align 4, !tbaa !57
  %28 = load i32, ptr %9, align 4, !tbaa !34
  %29 = add nsw i32 %27, %28
  %30 = add nsw i32 %29, 1
  %31 = getelementptr inbounds nuw %"class.cv::Point_", ptr %12, i32 0, i32 0
  store i32 %30, ptr %31, align 4, !tbaa !57
  %32 = getelementptr inbounds nuw %"class.cv::Point_", ptr %6, i32 0, i32 1
  %33 = load i32, ptr %32, align 4, !tbaa !59
  %34 = load i32, ptr %9, align 4, !tbaa !34
  %35 = add nsw i32 %33, %34
  %36 = add nsw i32 %35, 1
  %37 = getelementptr inbounds nuw %"class.cv::Point_", ptr %12, i32 0, i32 1
  store i32 %36, ptr %37, align 4, !tbaa !59
  %38 = getelementptr inbounds nuw %"class.cv::Point_", ptr %11, i32 0, i32 0
  %39 = load i32, ptr %38, align 4, !tbaa !57
  %40 = icmp slt i32 %39, 0
  br i1 %40, label %41, label %43

41:                                               ; preds = %5
  %42 = getelementptr inbounds nuw %"class.cv::Point_", ptr %11, i32 0, i32 0
  store i32 0, ptr %42, align 4, !tbaa !57
  br label %56

43:                                               ; preds = %5
  %44 = getelementptr inbounds nuw %"class.cv::Point_", ptr %11, i32 0, i32 0
  %45 = load i32, ptr %44, align 4, !tbaa !57
  %46 = getelementptr inbounds nuw %"class.cv::Mat", ptr %1, i32 0, i32 3
  %47 = load i32, ptr %46, align 4, !tbaa !24
  %48 = sub nsw i32 %47, 1
  %49 = icmp sgt i32 %45, %48
  br i1 %49, label %50, label %55

50:                                               ; preds = %43
  %51 = getelementptr inbounds nuw %"class.cv::Mat", ptr %1, i32 0, i32 3
  %52 = load i32, ptr %51, align 4, !tbaa !24
  %53 = sub nsw i32 %52, 1
  %54 = getelementptr inbounds nuw %"class.cv::Point_", ptr %11, i32 0, i32 0
  store i32 %53, ptr %54, align 4, !tbaa !57
  br label %55

55:                                               ; preds = %50, %43
  br label %56

56:                                               ; preds = %55, %41
  %57 = getelementptr inbounds nuw %"class.cv::Point_", ptr %12, i32 0, i32 0
  %58 = load i32, ptr %57, align 4, !tbaa !57
  %59 = icmp slt i32 %58, 0
  br i1 %59, label %60, label %62

60:                                               ; preds = %56
  %61 = getelementptr inbounds nuw %"class.cv::Point_", ptr %12, i32 0, i32 0
  store i32 0, ptr %61, align 4, !tbaa !57
  br label %75

62:                                               ; preds = %56
  %63 = getelementptr inbounds nuw %"class.cv::Point_", ptr %12, i32 0, i32 0
  %64 = load i32, ptr %63, align 4, !tbaa !57
  %65 = getelementptr inbounds nuw %"class.cv::Mat", ptr %1, i32 0, i32 3
  %66 = load i32, ptr %65, align 4, !tbaa !24
  %67 = sub nsw i32 %66, 1
  %68 = icmp sgt i32 %64, %67
  br i1 %68, label %69, label %74

69:                                               ; preds = %62
  %70 = getelementptr inbounds nuw %"class.cv::Mat", ptr %1, i32 0, i32 3
  %71 = load i32, ptr %70, align 4, !tbaa !24
  %72 = sub nsw i32 %71, 1
  %73 = getelementptr inbounds nuw %"class.cv::Point_", ptr %12, i32 0, i32 0
  store i32 %72, ptr %73, align 4, !tbaa !57
  br label %74

74:                                               ; preds = %69, %62
  br label %75

75:                                               ; preds = %74, %60
  %76 = getelementptr inbounds nuw %"class.cv::Point_", ptr %11, i32 0, i32 1
  %77 = load i32, ptr %76, align 4, !tbaa !59
  %78 = icmp slt i32 %77, 0
  br i1 %78, label %79, label %81

79:                                               ; preds = %75
  %80 = getelementptr inbounds nuw %"class.cv::Point_", ptr %11, i32 0, i32 1
  store i32 0, ptr %80, align 4, !tbaa !59
  br label %94

81:                                               ; preds = %75
  %82 = getelementptr inbounds nuw %"class.cv::Point_", ptr %11, i32 0, i32 1
  %83 = load i32, ptr %82, align 4, !tbaa !59
  %84 = getelementptr inbounds nuw %"class.cv::Mat", ptr %1, i32 0, i32 2
  %85 = load i32, ptr %84, align 8, !tbaa !33
  %86 = sub nsw i32 %85, 1
  %87 = icmp sgt i32 %83, %86
  br i1 %87, label %88, label %93

88:                                               ; preds = %81
  %89 = getelementptr inbounds nuw %"class.cv::Mat", ptr %1, i32 0, i32 2
  %90 = load i32, ptr %89, align 8, !tbaa !33
  %91 = sub nsw i32 %90, 1
  %92 = getelementptr inbounds nuw %"class.cv::Point_", ptr %11, i32 0, i32 1
  store i32 %91, ptr %92, align 4, !tbaa !59
  br label %93

93:                                               ; preds = %88, %81
  br label %94

94:                                               ; preds = %93, %79
  %95 = getelementptr inbounds nuw %"class.cv::Point_", ptr %12, i32 0, i32 1
  %96 = load i32, ptr %95, align 4, !tbaa !59
  %97 = icmp slt i32 %96, 0
  br i1 %97, label %98, label %100

98:                                               ; preds = %94
  %99 = getelementptr inbounds nuw %"class.cv::Point_", ptr %12, i32 0, i32 1
  store i32 0, ptr %99, align 4, !tbaa !59
  br label %113

100:                                              ; preds = %94
  %101 = getelementptr inbounds nuw %"class.cv::Point_", ptr %12, i32 0, i32 1
  %102 = load i32, ptr %101, align 4, !tbaa !59
  %103 = getelementptr inbounds nuw %"class.cv::Mat", ptr %1, i32 0, i32 2
  %104 = load i32, ptr %103, align 8, !tbaa !33
  %105 = sub nsw i32 %104, 1
  %106 = icmp sgt i32 %102, %105
  br i1 %106, label %107, label %112

107:                                              ; preds = %100
  %108 = getelementptr inbounds nuw %"class.cv::Mat", ptr %1, i32 0, i32 2
  %109 = load i32, ptr %108, align 8, !tbaa !33
  %110 = sub nsw i32 %109, 1
  %111 = getelementptr inbounds nuw %"class.cv::Point_", ptr %12, i32 0, i32 1
  store i32 %110, ptr %111, align 4, !tbaa !59
  br label %112

112:                                              ; preds = %107, %100
  br label %113

113:                                              ; preds = %112, %98
  %114 = getelementptr inbounds nuw %"class.cv::Point_", ptr %12, i32 0, i32 1
  %115 = load i32, ptr %114, align 4, !tbaa !59
  %116 = getelementptr inbounds nuw %"class.cv::Point_", ptr %12, i32 0, i32 0
  %117 = load i32, ptr %116, align 4, !tbaa !57
  %118 = call noundef nonnull align 4 dereferenceable(4) ptr @_ZN2cv3Mat2atIfEERT_ii(ptr noundef nonnull align 8 dereferenceable(96) %1, i32 noundef %115, i32 noundef %117)
  %119 = load float, ptr %118, align 4, !tbaa !62
  %120 = getelementptr inbounds nuw %"class.cv::Point_", ptr %11, i32 0, i32 1
  %121 = load i32, ptr %120, align 4, !tbaa !59
  %122 = getelementptr inbounds nuw %"class.cv::Point_", ptr %11, i32 0, i32 0
  %123 = load i32, ptr %122, align 4, !tbaa !57
  %124 = call noundef nonnull align 4 dereferenceable(4) ptr @_ZN2cv3Mat2atIfEERT_ii(ptr noundef nonnull align 8 dereferenceable(96) %1, i32 noundef %121, i32 noundef %123)
  %125 = load float, ptr %124, align 4, !tbaa !62
  %126 = fadd float %119, %125
  %127 = getelementptr inbounds nuw %"class.cv::Point_", ptr %12, i32 0, i32 1
  %128 = load i32, ptr %127, align 4, !tbaa !59
  %129 = getelementptr inbounds nuw %"class.cv::Point_", ptr %11, i32 0, i32 0
  %130 = load i32, ptr %129, align 4, !tbaa !57
  %131 = call noundef nonnull align 4 dereferenceable(4) ptr @_ZN2cv3Mat2atIfEERT_ii(ptr noundef nonnull align 8 dereferenceable(96) %1, i32 noundef %128, i32 noundef %130)
  %132 = load float, ptr %131, align 4, !tbaa !62
  %133 = fsub float %126, %132
  %134 = getelementptr inbounds nuw %"class.cv::Point_", ptr %11, i32 0, i32 1
  %135 = load i32, ptr %134, align 4, !tbaa !59
  %136 = getelementptr inbounds nuw %"class.cv::Point_", ptr %12, i32 0, i32 0
  %137 = load i32, ptr %136, align 4, !tbaa !57
  %138 = call noundef nonnull align 4 dereferenceable(4) ptr @_ZN2cv3Mat2atIfEERT_ii(ptr noundef nonnull align 8 dereferenceable(96) %1, i32 noundef %135, i32 noundef %137)
  %139 = load float, ptr %138, align 4, !tbaa !62
  %140 = fsub float %133, %139
  store float %140, ptr %13, align 4, !tbaa !62
  %141 = load float, ptr %13, align 4, !tbaa !62
  %142 = load i32, ptr %10, align 4, !tbaa !34
  %143 = sitofp i32 %142 to float
  %144 = fsub float %141, %143
  %145 = getelementptr inbounds nuw %"class.cv::Point_", ptr %12, i32 0, i32 0
  %146 = load i32, ptr %145, align 4, !tbaa !57
  %147 = getelementptr inbounds nuw %"class.cv::Point_", ptr %11, i32 0, i32 0
  %148 = load i32, ptr %147, align 4, !tbaa !57
  %149 = sub nsw i32 %146, %148
  %150 = getelementptr inbounds nuw %"class.cv::Point_", ptr %12, i32 0, i32 1
  %151 = load i32, ptr %150, align 4, !tbaa !59
  %152 = getelementptr inbounds nuw %"class.cv::Point_", ptr %11, i32 0, i32 1
  %153 = load i32, ptr %152, align 4, !tbaa !59
  %154 = sub nsw i32 %151, %153
  %155 = mul nsw i32 %149, %154
  %156 = sub nsw i32 %155, 1
  %157 = sitofp i32 %156 to float
  %158 = fdiv float %144, %157
  store float %158, ptr %13, align 4, !tbaa !62
  %159 = load float, ptr %13, align 4, !tbaa !62
  call void @llvm.lifetime.end.p0(i64 4, ptr %13) #3
  call void @llvm.lifetime.end.p0(i64 8, ptr %12) #3
  call void @llvm.lifetime.end.p0(i64 8, ptr %11) #3
  ret float %159
}