; Function Attrs: mustprogress nofree norecurse nosync nounwind willreturn memory(read, inaccessiblemem: none) uwtable
define noundef float @_ZN2cv8saliency25StaticSaliencyFineGrained7getMeanENS_3MatENS_6Point_IiEEii(ptr noundef nonnull readnone align 8 captures(none) dereferenceable(8) %0, ptr noundef readonly captures(none) %1, i64 %2, i32 noundef %3, i32 noundef %4) local_unnamed_addr #11 align 2 {
  %.sroa.0.0.extract.trunc = trunc i64 %2 to i32
  %.sroa.3.0.extract.shift = lshr i64 %2, 32
  %.sroa.3.0.extract.trunc = trunc nuw i64 %.sroa.3.0.extract.shift to i32
  %6 = sub nsw i32 %.sroa.0.0.extract.trunc, %3
  %7 = sub nsw i32 %.sroa.3.0.extract.trunc, %3
  %8 = add nsw i32 %7, 1
  %9 = add nsw i32 %3, %.sroa.0.0.extract.trunc
  %10 = add nsw i32 %9, 1
  %11 = add nsw i32 %3, %.sroa.3.0.extract.trunc
  %12 = add nsw i32 %11, 1
  %13 = icmp slt i32 %6, -1
  br i1 %13, label %19, label %14

14:                                               ; preds = %5
  %15 = add nsw i32 %6, 1
  %16 = getelementptr inbounds nuw i8, ptr %1, i64 12
  %17 = load i32, ptr %16, align 4, !tbaa !22
  %.not = icmp slt i32 %15, %17
  %18 = add nsw i32 %17, -1
  %spec.select = select i1 %.not, i32 %15, i32 %18
  br label %19

19:                                               ; preds = %14, %5
  %.sroa.024.0 = phi i32 [ 0, %5 ], [ %spec.select, %14 ]
  %20 = icmp slt i32 %9, -1
  br i1 %20, label %25, label %21

21:                                               ; preds = %19
  %22 = getelementptr inbounds nuw i8, ptr %1, i64 12
  %23 = load i32, ptr %22, align 4, !tbaa !22
  %.not15 = icmp slt i32 %10, %23
  %24 = add nsw i32 %23, -1
  %spec.select32 = select i1 %.not15, i32 %10, i32 %24
  br label %25

25:                                               ; preds = %21, %19
  %.sroa.0.0 = phi i32 [ 0, %19 ], [ %spec.select32, %21 ]
  %26 = icmp slt i32 %7, -1
  br i1 %26, label %31, label %27

27:                                               ; preds = %25
  %28 = getelementptr inbounds nuw i8, ptr %1, i64 8
  %29 = load i32, ptr %28, align 8, !tbaa !33
  %.not16 = icmp slt i32 %8, %29
  %30 = add nsw i32 %29, -1
  %spec.select33 = select i1 %.not16, i32 %8, i32 %30
  br label %31

31:                                               ; preds = %27, %25
  %.sroa.1028.0 = phi i32 [ 0, %25 ], [ %spec.select33, %27 ]
  %32 = icmp slt i32 %11, -1
  br i1 %32, label %37, label %33

33:                                               ; preds = %31
  %34 = getelementptr inbounds nuw i8, ptr %1, i64 8
  %35 = load i32, ptr %34, align 8, !tbaa !33
  %.not17 = icmp slt i32 %12, %35
  %36 = add nsw i32 %35, -1
  %spec.select34 = select i1 %.not17, i32 %12, i32 %36
  br label %37

37:                                               ; preds = %33, %31
  %.sroa.10.0 = phi i32 [ 0, %31 ], [ %spec.select34, %33 ]
  %38 = getelementptr inbounds nuw i8, ptr %1, i64 16
  %39 = load ptr, ptr %38, align 8, !tbaa !55
  %40 = getelementptr inbounds nuw i8, ptr %1, i64 72
  %41 = load ptr, ptr %40, align 8, !tbaa !56
  %42 = load i64, ptr %41, align 8, !tbaa !57
  %43 = sext i32 %.sroa.10.0 to i64
  %44 = mul i64 %42, %43
  %45 = getelementptr inbounds nuw i8, ptr %39, i64 %44
  %46 = sext i32 %.sroa.0.0 to i64
  %47 = getelementptr inbounds float, ptr %45, i64 %46
  %48 = load float, ptr %47, align 4, !tbaa !58
  %49 = sext i32 %.sroa.1028.0 to i64
  %50 = mul i64 %42, %49
  %51 = getelementptr inbounds nuw i8, ptr %39, i64 %50
  %52 = sext i32 %.sroa.024.0 to i64
  %53 = getelementptr inbounds float, ptr %51, i64 %52
  %54 = load float, ptr %53, align 4, !tbaa !58
  %55 = fadd float %48, %54
  %56 = getelementptr inbounds float, ptr %45, i64 %52
  %57 = load float, ptr %56, align 4, !tbaa !58
  %58 = fsub float %55, %57
  %59 = getelementptr inbounds float, ptr %51, i64 %46
  %60 = load float, ptr %59, align 4, !tbaa !58
  %61 = fsub float %58, %60
  %62 = sitofp i32 %4 to float
  %63 = fsub float %61, %62
  %64 = sub nsw i32 %.sroa.0.0, %.sroa.024.0
  %65 = sub nsw i32 %.sroa.10.0, %.sroa.1028.0
  %66 = mul nsw i32 %65, %64
  %67 = add nsw i32 %66, -1
  %68 = sitofp i32 %67 to float
  %69 = fdiv float %63, %68
  ret float %69
}